; Function Attrs: mustprogress uwtable
define internal noundef zeroext i1 @_ZN19grpc_java_generator12_GLOBAL__N_128CompareMethodClientStreamingERKSt10unique_ptrIKN14grpc_generator6MethodESt14default_deleteIS4_EES9_(ptr noundef nonnull readonly align 8 captures(none) dereferenceable(8) %0, ptr noundef nonnull readonly align 8 captures(none) dereferenceable(8) %1) #3 {
  %3 = load ptr, ptr %0, align 8, !tbaa !51
  %4 = load ptr, ptr %3, align 8, !tbaa !14
  %5 = getelementptr inbounds nuw i8, ptr %4, i64 128
  %6 = load ptr, ptr %5, align 8
  %7 = tail call noundef zeroext i1 %6(ptr noundef nonnull align 8 dereferenceable(8) %3)
  %8 = load ptr, ptr %1, align 8, !tbaa !51
  %9 = load ptr, ptr %8, align 8, !tbaa !14
  %10 = getelementptr inbounds nuw i8, ptr %9, i64 128
  %11 = load ptr, ptr %10, align 8
  %12 = tail call noundef zeroext i1 %11(ptr noundef nonnull align 8 dereferenceable(8) %8)
  %13 = xor i1 %7, true
  %14 = and i1 %12, %13
  ret i1 %14
}